; Function Attrs: mustprogress uwtable
define dso_local noundef nonnull align 8 dereferenceable(112) ptr @_ZN7V3Error11v3errorPrepB5cxx11E11V3ErrorCode(i8 %0) #8 align 2 personality ptr @__gxx_personality_v0 {
  %2 = load atomic i8, ptr @_ZGVZN7V3Error1sEvE3s_s acquire, align 8
  %3 = icmp eq i8 %2, 0
  br i1 %3, label %4, label %_ZN7V3Error1sEv.exit, !prof !50

4:                                                ; preds = %1
  %5 = tail call i32 @__cxa_guard_acquire(ptr nonnull @_ZGVZN7V3Error1sEvE3s_s) #30
  %.not.i = icmp eq i32 %5, 0
  br i1 %.not.i, label %_ZN7V3Error1sEv.exit, label %6

6:                                                ; preds = %4
  invoke void @_ZN14V3ErrorGuardedC2Ev(ptr noundef nonnull align 8 dereferenceable(760) @_ZZN7V3Error1sEvE3s_s)
          to label %7 unwind label %9

7:                                                ; preds = %6
  %8 = tail call i32 @__cxa_atexit(ptr nonnull @_ZN14V3ErrorGuardedD2Ev, ptr nonnull @_ZZN7V3Error1sEvE3s_s, ptr nonnull @__dso_handle) #30
  tail call void @__cxa_guard_release(ptr nonnull @_ZGVZN7V3Error1sEvE3s_s) #30
  br label %_ZN7V3Error1sEv.exit

common.resume:                                    ; preds = %36, %27, %9
  %common.resume.op = phi { ptr, i32 } [ %10, %9 ], [ %28, %27 ], [ %37, %36 ]
  tail call void @__cxa_guard_abort(ptr nonnull @_ZGVZN7V3Error1sEvE3s_s) #30
  resume { ptr, i32 } %common.resume.op

9:                                                ; preds = %6
  %10 = landingpad { ptr, i32 }
          cleanup
  br label %common.resume

_ZN7V3Error1sEv.exit:                             ; preds = %1, %4, %7
  %11 = load i8, ptr @_ZZN13V3MutexConfig1sEvE1s, align 1, !tbaa !169, !range !16, !noundef !17
  %12 = trunc nuw i8 %11 to i1
  br i1 %12, label %_ZN10V3MutexImpISt15recursive_mutexE8try_lockEv.exit.i, label %_ZN10V3MutexImpISt15recursive_mutexE4lockEv.exit

_ZN10V3MutexImpISt15recursive_mutexE8try_lockEv.exit.i: ; preds = %_ZN7V3Error1sEv.exit
  %13 = tail call noundef i32 @pthread_mutex_trylock(ptr noundef nonnull align 8 dereferenceable(40) getelementptr inbounds nuw (i8, ptr @_ZZN7V3Error1sEvE3s_s, i64 720)) #30
  %.not.i.i.i = icmp eq i32 %13, 0
  br i1 %.not.i.i.i, label %_ZN10V3MutexImpISt15recursive_mutexE4lockEv.exit, label %.preheader.i, !prof !168

.preheader.i:                                     ; preds = %_ZN10V3MutexImpISt15recursive_mutexE8try_lockEv.exit.i, %17
  %.039.i = phi i32 [ %18, %17 ], [ 0, %_ZN10V3MutexImpISt15recursive_mutexE8try_lockEv.exit.i ]
  %14 = load i8, ptr @_ZZN13V3MutexConfig1sEvE1s, align 1, !tbaa !169, !range !16, !noundef !17
  %15 = trunc nuw i8 %14 to i1
  br i1 %15, label %_ZN10V3MutexImpISt15recursive_mutexE8try_lockEv.exit5.i, label %_ZN10V3MutexImpISt15recursive_mutexE4lockEv.exit

_ZN10V3MutexImpISt15recursive_mutexE8try_lockEv.exit5.i: ; preds = %.preheader.i
  %16 = tail call noundef i32 @pthread_mutex_trylock(ptr noundef nonnull align 8 dereferenceable(40) getelementptr inbounds nuw (i8, ptr @_ZZN7V3Error1sEvE3s_s, i64 720)) #30
  %.not.i.i4.i = icmp eq i32 %16, 0
  br i1 %.not.i.i4.i, label %_ZN10V3MutexImpISt15recursive_mutexE4lockEv.exit, label %17, !prof !171

17:                                               ; preds = %_ZN10V3MutexImpISt15recursive_mutexE8try_lockEv.exit5.i
  tail call void asm sideeffect "rep; nop", "~{memory},~{dirflag},~{fpsr},~{flags}"() #30, !srcloc !172
  %18 = add nuw nsw i32 %.039.i, 1
  %exitcond.not.i = icmp eq i32 %18, 50000
  br i1 %exitcond.not.i, label %19, label %.preheader.i, !llvm.loop !173

19:                                               ; preds = %17
  tail call void @_ZNSt15recursive_mutex4lockEv(ptr noundef nonnull align 8 dereferenceable(40) getelementptr inbounds nuw (i8, ptr @_ZZN7V3Error1sEvE3s_s, i64 720))
  br label %_ZN10V3MutexImpISt15recursive_mutexE4lockEv.exit

_ZN10V3MutexImpISt15recursive_mutexE4lockEv.exit: ; preds = %.preheader.i, %_ZN10V3MutexImpISt15recursive_mutexE8try_lockEv.exit5.i, %_ZN7V3Error1sEv.exit, %_ZN10V3MutexImpISt15recursive_mutexE8try_lockEv.exit.i, %19
  %20 = load atomic i8, ptr @_ZGVZN7V3Error1sEvE3s_s acquire, align 8
  %21 = icmp eq i8 %20, 0
  br i1 %21, label %22, label %_ZN7V3Error1sEv.exit3, !prof !50

22:                                               ; preds = %_ZN10V3MutexImpISt15recursive_mutexE4lockEv.exit
  %23 = tail call i32 @__cxa_guard_acquire(ptr nonnull @_ZGVZN7V3Error1sEvE3s_s) #30
  %.not.i2 = icmp eq i32 %23, 0
  br i1 %.not.i2, label %_ZN7V3Error1sEv.exit3, label %24

24:                                               ; preds = %22
  invoke void @_ZN14V3ErrorGuardedC2Ev(ptr noundef nonnull align 8 dereferenceable(760) @_ZZN7V3Error1sEvE3s_s)
          to label %25 unwind label %27

25:                                               ; preds = %24
  %26 = tail call i32 @__cxa_atexit(ptr nonnull @_ZN14V3ErrorGuardedD2Ev, ptr nonnull @_ZZN7V3Error1sEvE3s_s, ptr nonnull @__dso_handle) #30
  tail call void @__cxa_guard_release(ptr nonnull @_ZGVZN7V3Error1sEvE3s_s) #30
  br label %_ZN7V3Error1sEv.exit3

27:                                               ; preds = %24
  %28 = landingpad { ptr, i32 }
          cleanup
  br label %common.resume

_ZN7V3Error1sEv.exit3:                            ; preds = %_ZN10V3MutexImpISt15recursive_mutexE4lockEv.exit, %22, %25
  tail call void @_ZN14V3ErrorGuarded11v3errorPrepE11V3ErrorCode(ptr noundef nonnull align 8 dereferenceable(760) @_ZZN7V3Error1sEvE3s_s, i8 %0)
  %29 = load atomic i8, ptr @_ZGVZN7V3Error1sEvE3s_s acquire, align 8
  %30 = icmp eq i8 %29, 0
  br i1 %30, label %31, label %_ZN7V3Error10v3errorStrB5cxx11Ev.exit, !prof !50

31:                                               ; preds = %_ZN7V3Error1sEv.exit3
  %32 = tail call i32 @__cxa_guard_acquire(ptr nonnull @_ZGVZN7V3Error1sEvE3s_s) #30
  %.not.i.i = icmp eq i32 %32, 0
  br i1 %.not.i.i, label %_ZN7V3Error10v3errorStrB5cxx11Ev.exit, label %33

33:                                               ; preds = %31
  invoke void @_ZN14V3ErrorGuardedC2Ev(ptr noundef nonnull align 8 dereferenceable(760) @_ZZN7V3Error1sEvE3s_s)
          to label %34 unwind label %36

34:                                               ; preds = %33
  %35 = tail call i32 @__cxa_atexit(ptr nonnull @_ZN14V3ErrorGuardedD2Ev, ptr nonnull @_ZZN7V3Error1sEvE3s_s, ptr nonnull @__dso_handle) #30
  tail call void @__cxa_guard_release(ptr nonnull @_ZGVZN7V3Error1sEvE3s_s) #30
  br label %_ZN7V3Error10v3errorStrB5cxx11Ev.exit

36:                                               ; preds = %33
  %37 = landingpad { ptr, i32 }
          cleanup
  br label %common.resume

_ZN7V3Error10v3errorStrB5cxx11Ev.exit:            ; preds = %_ZN7V3Error1sEv.exit3, %31, %34
  %38 = tail call noundef nonnull align 8 dereferenceable(112) ptr @llvm.ptr.annotation.p0.p0(ptr nonnull getelementptr inbounds nuw (i8, ptr @_ZZN7V3Error1sEvE3s_s, i64 344), ptr nonnull @.str, ptr nonnull @.str.2, i32 337, ptr null)
  ret ptr %38
}